Certificate:
    Data:
        Version: 3 (0x2)
        Serial Number:
            d3:74:96:f8:cd:a5:7c:5b
        Signature Algorithm: sha1WithRSAEncryption
        Issuer: C=JP, ST=Tokyo, O=Kazzla, OU=Development, CN=kazzla.com/emailAddress=koiroha@gmail.com
        Validity
            Not Before: Aug  6 17:54:35 2013 GMT
            Not After : Aug  6 17:54:35 2014 GMT
        Subject: C=JP, ST=Tokyo, O=Kazzla, OU=Development, CN=kazzla.com/emailAddress=koiroha@gmail.com
        Subject Public Key Info:
            Public Key Algorithm: rsaEncryption
            RSA Public Key: (1024 bit)
                Modulus (1024 bit):
                    00:f4:02:ef:fb:9d:b4:80:b0:30:77:a5:0f:23:c0:
                    3c:e1:94:06:4c:18:f6:69:a8:c1:f8:a7:ba:b5:57:
                    42:4a:fa:77:01:d9:e7:de:4a:34:27:54:71:ff:d8:
                    4c:0c:1a:8f:b1:ee:60:11:df:16:6f:73:ae:81:a2:
                    21:86:56:77:9e:79:40:ff:17:6e:02:96:0b:7e:6f:
                    8a:62:4b:d3:46:6f:ae:f7:09:68:03:28:f6:45:a6:
                    7b:ba:fc:57:4e:70:1e:7d:00:d8:2a:4a:2a:36:12:
                    43:77:b1:23:26:b2:31:cf:37:5a:15:2a:79:66:0e:
                    2a:f4:60:06:85:f9:31:b2:4f
                Exponent: 65537 (0x10001)
        X509v3 extensions:
            X509v3 Basic Constraints: 
                CA:FALSE
            Netscape Comment: 
                OpenSSL Generated Certificate
            X509v3 Subject Key Identifier: 
                F7:93:94:67:81:93:96:FA:2D:CA:04:5C:AF:86:A9:48:5F:9A:05:1D
            X509v3 Authority Key Identifier: 
                keyid:5C:5D:6D:E9:C6:48:CA:FD:0F:EB:7B:13:C5:64:8E:09:BA:8B:57:3B

    Signature Algorithm: sha1WithRSAEncryption
        a2:96:db:7d:bd:86:32:75:95:1d:07:bc:be:f4:e6:45:48:12:
        ec:c6:d0:ba:53:78:a1:4d:43:0f:93:a3:50:b0:d7:8d:bd:09:
        d8:21:15:02:40:05:8e:8e:84:aa:3d:8b:f1:53:ac:75:cf:49:
        ef:27:26:6d:5f:b8:0d:7c:02:29:2e:89:94:fb:bc:c3:c2:57:
        f1:92:02:09:9f:ac:17:93:51:9b:12:e7:14:d0:af:76:8e:8d:
        ff:69:43:20:47:2b:fe:00:cf:91:ba:52:4d:73:de:30:27:4d:
        98:b5:d0:16:2a:ee:72:ad:48:0d:c4:95:78:b7:1a:7f:43:c5:
        66:fe
-----BEGIN CERTIFICATE-----
MIIC7zCCAligAwIBAgIJANN0lvjNpXxbMA0GCSqGSIb3DQEBBQUAMHsxCzAJBgNV
BAYTAkpQMQ4wDAYDVQQIEwVUb2t5bzEPMA0GA1UEChMGS2F6emxhMRQwEgYDVQQL
EwtEZXZlbG9wbWVudDETMBEGA1UEAxMKa2F6emxhLmNvbTEgMB4GCSqGSIb3DQEJ
ARYRa29pcm9oYUBnbWFpbC5jb20wHhcNMTMwODA2MTc1NDM1WhcNMTQwODA2MTc1
NDM1WjB7MQswCQYDVQQGEwJKUDEOMAwGA1UECBMFVG9reW8xDzANBgNVBAoTBkth
enpsYTEUMBIGA1UECxMLRGV2ZWxvcG1lbnQxEzARBgNVBAMTCmthenpsYS5jb20x
IDAeBgkqhkiG9w0BCQEWEWtvaXJvaGFAZ21haWwuY29tMIGfMA0GCSqGSIb3DQEB
AQUAA4GNADCBiQKBgQD0Au/7nbSAsDB3pQ8jwDzhlAZMGPZpqMH4p7q1V0JK+ncB
2efeSjQnVHH/2EwMGo+x7mAR3xZvc66BoiGGVneeeUD/F24Clgt+b4piS9NGb673
CWgDKPZFpnu6/FdOcB59ANgqSio2EkN3sSMmsjHPN1oVKnlmDir0YAaF+TGyTwID
AQABo3sweTAJBgNVHRMEAjAAMCwGCWCGSAGG+EIBDQQfFh1PcGVuU1NMIEdlbmVy
YXRlZCBDZXJ0aWZpY2F0ZTAdBgNVHQ4EFgQU95OUZ4GTlvotygRcr4apSF+aBR0w
HwYDVR0jBBgwFoAUXF1t6cZIyv0P63sTxWSOCbqLVzswDQYJKoZIhvcNAQEFBQAD
gYEAopbbfb2GMnWVHQe8vvTmRUgS7MbQulN4oU1DD5OjULDXjb0J2CEVAkAFjo6E
qj2L8VOsdc9J7ycmbV+4DXwCKS6JlPu8w8JX8ZICCZ+sF5NRmxLnFNCvdo6N/2lD
IEcr/gDPkbpSTXPeMCdNmLXQFirucq1IDcSVeLcaf0PFZv4=
-----END CERTIFICATE-----
