Certificate:
    Data:
        Version: 3 (0x2)
        Serial Number:
            d3:74:96:f8:cd:a5:7c:5c
        Signature Algorithm: sha1WithRSAEncryption
        Issuer: C=JP, ST=Tokyo, O=Kazzla, OU=Development, CN=kazzla.com/emailAddress=koiroha@gmail.com
        Validity
            Not Before: Aug  6 17:55:14 2013 GMT
            Not After : Aug  6 17:55:14 2014 GMT
        Subject: C=JP, ST=Tokyo, O=Kazzla, OU=Development, CN=torao/emailAddress=koiroha@gmail.com
        Subject Public Key Info:
            Public Key Algorithm: rsaEncryption
            RSA Public Key: (1024 bit)
                Modulus (1024 bit):
                    00:f4:02:ef:fb:9d:b4:80:b0:30:77:a5:0f:23:c0:
                    3c:e1:94:06:4c:18:f6:69:a8:c1:f8:a7:ba:b5:57:
                    42:4a:fa:77:01:d9:e7:de:4a:34:27:54:71:ff:d8:
                    4c:0c:1a:8f:b1:ee:60:11:df:16:6f:73:ae:81:a2:
                    21:86:56:77:9e:79:40:ff:17:6e:02:96:0b:7e:6f:
                    8a:62:4b:d3:46:6f:ae:f7:09:68:03:28:f6:45:a6:
                    7b:ba:fc:57:4e:70:1e:7d:00:d8:2a:4a:2a:36:12:
                    43:77:b1:23:26:b2:31:cf:37:5a:15:2a:79:66:0e:
                    2a:f4:60:06:85:f9:31:b2:4f
                Exponent: 65537 (0x10001)
        X509v3 extensions:
            X509v3 Basic Constraints: 
                CA:FALSE
            Netscape Comment: 
                OpenSSL Generated Certificate
            X509v3 Subject Key Identifier: 
                F7:93:94:67:81:93:96:FA:2D:CA:04:5C:AF:86:A9:48:5F:9A:05:1D
            X509v3 Authority Key Identifier: 
                keyid:5C:5D:6D:E9:C6:48:CA:FD:0F:EB:7B:13:C5:64:8E:09:BA:8B:57:3B

    Signature Algorithm: sha1WithRSAEncryption
        b0:c7:20:33:79:37:b2:41:6a:d7:bf:9f:39:5e:f2:ee:54:9f:
        59:21:d0:93:90:09:fb:b4:fe:0a:64:e9:7a:99:31:09:b4:f7:
        30:4c:f7:7f:f7:15:4f:99:27:4a:af:e3:67:f8:9a:a5:09:c2:
        19:5a:70:ed:1b:3f:18:e6:55:0c:97:19:1b:1c:6b:dd:80:4f:
        13:42:0f:5d:3b:c7:2b:68:6b:30:ce:dc:1d:74:28:9e:70:7c:
        41:44:4c:91:02:c9:24:a2:44:f2:ba:81:e9:21:fd:ba:38:ce:
        9f:54:06:63:9d:46:5b:3b:01:a7:af:cc:17:85:9c:e3:5f:20:
        9d:47
-----BEGIN CERTIFICATE-----
MIIC6jCCAlOgAwIBAgIJANN0lvjNpXxcMA0GCSqGSIb3DQEBBQUAMHsxCzAJBgNV
BAYTAkpQMQ4wDAYDVQQIEwVUb2t5bzEPMA0GA1UEChMGS2F6emxhMRQwEgYDVQQL
EwtEZXZlbG9wbWVudDETMBEGA1UEAxMKa2F6emxhLmNvbTEgMB4GCSqGSIb3DQEJ
ARYRa29pcm9oYUBnbWFpbC5jb20wHhcNMTMwODA2MTc1NTE0WhcNMTQwODA2MTc1
NTE0WjB2MQswCQYDVQQGEwJKUDEOMAwGA1UECBMFVG9reW8xDzANBgNVBAoTBkth
enpsYTEUMBIGA1UECxMLRGV2ZWxvcG1lbnQxDjAMBgNVBAMTBXRvcmFvMSAwHgYJ
KoZIhvcNAQkBFhFrb2lyb2hhQGdtYWlsLmNvbTCBnzANBgkqhkiG9w0BAQEFAAOB
jQAwgYkCgYEA9ALv+520gLAwd6UPI8A84ZQGTBj2aajB+Ke6tVdCSvp3Adnn3ko0
J1Rx/9hMDBqPse5gEd8Wb3OugaIhhlZ3nnlA/xduApYLfm+KYkvTRm+u9wloAyj2
RaZ7uvxXTnAefQDYKkoqNhJDd7EjJrIxzzdaFSp5Zg4q9GAGhfkxsk8CAwEAAaN7
MHkwCQYDVR0TBAIwADAsBglghkgBhvhCAQ0EHxYdT3BlblNTTCBHZW5lcmF0ZWQg
Q2VydGlmaWNhdGUwHQYDVR0OBBYEFPeTlGeBk5b6LcoEXK+GqUhfmgUdMB8GA1Ud
IwQYMBaAFFxdbenGSMr9D+t7E8Vkjgm6i1c7MA0GCSqGSIb3DQEBBQUAA4GBALDH
IDN5N7JBate/nzle8u5Un1kh0JOQCfu0/gpk6XqZMQm09zBM93/3FU+ZJ0qv42f4
mqUJwhlacO0bPxjmVQyXGRsca92ATxNCD107xytoazDO3B10KJ5wfEFETJECySSi
RPK6gekh/bo4zp9UBmOdRls7AaevzBeFnONfIJ1H
-----END CERTIFICATE-----
