Certificate:
    Data:
        Version: 3 (0x2)
        Serial Number:
            d3:74:96:f8:cd:a5:7c:5a
        Signature Algorithm: sha1WithRSAEncryption
        Issuer: C=JP, ST=Tokyo, O=Kazzla, OU=Development, CN=kazzla.com/emailAddress=koiroha@gmail.com
        Validity
            Not Before: Aug  6 17:43:51 2013 GMT
            Not After : Aug  5 17:43:51 2016 GMT
        Subject: C=JP, ST=Tokyo, O=Kazzla, OU=Development, CN=kazzla.com/emailAddress=koiroha@gmail.com
        Subject Public Key Info:
            Public Key Algorithm: rsaEncryption
            RSA Public Key: (1024 bit)
                Modulus (1024 bit):
                    00:d7:41:29:62:2c:a1:35:a9:c9:33:2d:70:fa:d4:
                    6e:13:ff:5d:ac:75:05:05:c5:93:8a:f0:0f:56:8e:
                    b7:4c:8f:78:4c:ff:43:c1:1e:9b:b5:64:b6:48:f1:
                    a0:1c:a2:fd:a9:f5:14:bc:7f:f8:12:9f:1d:53:fd:
                    58:89:16:37:cf:81:ff:0b:ad:b3:95:c1:8f:10:ae:
                    96:80:10:24:3d:fd:02:de:57:cf:7a:ed:07:cb:18:
                    3d:93:0d:22:a2:8a:cb:3f:8c:97:c6:b2:4e:33:d7:
                    bd:1b:69:db:f9:4e:c4:db:05:67:1e:60:64:0f:b4:
                    3d:fc:17:16:f2:ff:f6:a7:a1
                Exponent: 65537 (0x10001)
        X509v3 extensions:
            X509v3 Subject Key Identifier: 
                5C:5D:6D:E9:C6:48:CA:FD:0F:EB:7B:13:C5:64:8E:09:BA:8B:57:3B
            X509v3 Authority Key Identifier: 
                keyid:5C:5D:6D:E9:C6:48:CA:FD:0F:EB:7B:13:C5:64:8E:09:BA:8B:57:3B
                DirName:/C=JP/ST=Tokyo/O=Kazzla/OU=Development/CN=kazzla.com/emailAddress=koiroha@gmail.com
                serial:D3:74:96:F8:CD:A5:7C:5A

            X509v3 Basic Constraints: 
                CA:TRUE
    Signature Algorithm: sha1WithRSAEncryption
        a7:dc:79:bf:96:c8:9f:e4:1f:c9:5b:f9:d5:26:d1:47:8e:68:
        b6:ca:65:1d:b0:17:67:5c:f5:81:dc:cb:db:d8:a7:15:26:29:
        9e:30:b1:cf:4a:f2:fb:b5:35:99:a8:5a:40:6a:d9:54:be:77:
        a6:f3:a5:87:0d:40:31:29:f3:f3:15:ad:3d:f1:fb:c9:eb:c2:
        ed:a0:87:ee:49:99:e5:19:3d:e7:47:54:96:16:fb:3a:73:47:
        d1:e1:90:27:3c:ba:06:a8:86:c2:70:47:f7:ac:59:95:1f:70:
        d6:6b:e1:d6:7d:9f:01:99:68:56:cd:76:b2:7c:7e:07:4c:87:
        4f:9f
-----BEGIN CERTIFICATE-----
MIIDVTCCAr6gAwIBAgIJANN0lvjNpXxaMA0GCSqGSIb3DQEBBQUAMHsxCzAJBgNV
BAYTAkpQMQ4wDAYDVQQIEwVUb2t5bzEPMA0GA1UEChMGS2F6emxhMRQwEgYDVQQL
EwtEZXZlbG9wbWVudDETMBEGA1UEAxMKa2F6emxhLmNvbTEgMB4GCSqGSIb3DQEJ
ARYRa29pcm9oYUBnbWFpbC5jb20wHhcNMTMwODA2MTc0MzUxWhcNMTYwODA1MTc0
MzUxWjB7MQswCQYDVQQGEwJKUDEOMAwGA1UECBMFVG9reW8xDzANBgNVBAoTBkth
enpsYTEUMBIGA1UECxMLRGV2ZWxvcG1lbnQxEzARBgNVBAMTCmthenpsYS5jb20x
IDAeBgkqhkiG9w0BCQEWEWtvaXJvaGFAZ21haWwuY29tMIGfMA0GCSqGSIb3DQEB
AQUAA4GNADCBiQKBgQDXQSliLKE1qckzLXD61G4T/12sdQUFxZOK8A9WjrdMj3hM
/0PBHpu1ZLZI8aAcov2p9RS8f/gSnx1T/ViJFjfPgf8LrbOVwY8QrpaAECQ9/QLe
V8967QfLGD2TDSKiiss/jJfGsk4z170badv5TsTbBWceYGQPtD38Fxby//anoQID
AQABo4HgMIHdMB0GA1UdDgQWBBRcXW3pxkjK/Q/rexPFZI4JuotXOzCBrQYDVR0j
BIGlMIGigBRcXW3pxkjK/Q/rexPFZI4JuotXO6F/pH0wezELMAkGA1UEBhMCSlAx
DjAMBgNVBAgTBVRva3lvMQ8wDQYDVQQKEwZLYXp6bGExFDASBgNVBAsTC0RldmVs
b3BtZW50MRMwEQYDVQQDEwprYXp6bGEuY29tMSAwHgYJKoZIhvcNAQkBFhFrb2ly
b2hhQGdtYWlsLmNvbYIJANN0lvjNpXxaMAwGA1UdEwQFMAMBAf8wDQYJKoZIhvcN
AQEFBQADgYEAp9x5v5bIn+QfyVv51SbRR45otsplHbAXZ1z1gdzL29inFSYpnjCx
z0ry+7U1mahaQGrZVL53pvOlhw1AMSnz8xWtPfH7yevC7aCH7kmZ5Rk950dUlhb7
OnNH0eGQJzy6BqiGwnBH96xZlR9w1mvh1n2fAZloVs12snx+B0yHT58=
-----END CERTIFICATE-----
