Certificate:
    Data:
        Version: 3 (0x2)
        Serial Number:
            d3:74:96:f8:cd:a5:7c:5e
        Signature Algorithm: sha1WithRSAEncryption
        Issuer: C=JP, ST=Tokyo, O=Kazzla, OU=Development, CN=kazzla.com/emailAddress=koiroha@gmail.com
        Validity
            Not Before: Aug  8 13:59:21 2013 GMT
            Not After : Aug  8 13:59:21 2014 GMT
        Subject: C=JP, ST=Tokyo, O=Kazzla, OU=Development, CN=torao
        Subject Public Key Info:
            Public Key Algorithm: dsaEncryption
            DSA Public Key:
                pub: 
                    18:f0:21:d3:f8:34:4b:8a:f3:39:72:dd:44:03:66:
                    35:fa:60:c0:8e:26:e0:eb:ae:e7:49:9e:69:8c:2e:
                    b0:39:d1:c9:df:ea:9a:b5:69:b3:ce:7b:5a:65:0b:
                    c6:dd:99:c7:74:79:6a:60:45:55:39:4b:67:c9:3a:
                    90:03:7e:e9:72:4a:bb:ee:8f:73:fe:a6:6d:17:6c:
                    fa:0d:15:32:3a:99:e0:21:71:86:ec:9a:fa:c6:11:
                    00:92:29:ce:bc:15:e2:fd:b1:69:f7:cb:e5:38:a6:
                    2f:fc:ce:f8:06:0d:b1:6f:df:af:b3:e6:d0:b8:8a:
                    83:6a:28:90:f8:88:21:79
                P:   
                    00:fd:7f:53:81:1d:75:12:29:52:df:4a:9c:2e:ec:
                    e4:e7:f6:11:b7:52:3c:ef:44:00:c3:1e:3f:80:b6:
                    51:26:69:45:5d:40:22:51:fb:59:3d:8d:58:fa:bf:
                    c5:f5:ba:30:f6:cb:9b:55:6c:d7:81:3b:80:1d:34:
                    6f:f2:66:60:b7:6b:99:50:a5:a4:9f:9f:e8:04:7b:
                    10:22:c2:4f:bb:a9:d7:fe:b7:c6:1b:f8:3b:57:e7:
                    c6:a8:a6:15:0f:04:fb:83:f6:d3:c5:1e:c3:02:35:
                    54:13:5a:16:91:32:f6:75:f3:ae:2b:61:d7:2a:ef:
                    f2:22:03:19:9d:d1:48:01:c7
                Q:   
                    00:97:60:50:8f:15:23:0b:cc:b2:92:b9:82:a2:eb:
                    84:0b:f0:58:1c:f5
                G:   
                    00:f7:e1:a0:85:d6:9b:3d:de:cb:bc:ab:5c:36:b8:
                    57:b9:79:94:af:bb:fa:3a:ea:82:f9:57:4c:0b:3d:
                    07:82:67:51:59:57:8e:ba:d4:59:4f:e6:71:07:10:
                    81:80:b4:49:16:71:23:e8:4c:28:16:13:b7:cf:09:
                    32:8c:c8:a6:e1:3c:16:7a:8b:54:7c:8d:28:e0:a3:
                    ae:1e:2b:b3:a6:75:91:6e:a3:7f:0b:fa:21:35:62:
                    f1:fb:62:7a:01:24:3b:cc:a4:f1:be:a8:51:90:89:
                    a8:83:df:e1:5a:e5:9f:06:92:8b:66:5e:80:7b:55:
                    25:64:01:4c:3b:fe:cf:49:2a
        X509v3 extensions:
            X509v3 Basic Constraints: 
                CA:FALSE
            Netscape Comment: 
                OpenSSL Generated Certificate
            X509v3 Subject Key Identifier: 
                25:F0:71:EA:CC:4B:55:28:98:F4:20:DE:A1:84:22:B9:27:D8:2D:BD
            X509v3 Authority Key Identifier: 
                keyid:5C:5D:6D:E9:C6:48:CA:FD:0F:EB:7B:13:C5:64:8E:09:BA:8B:57:3B

    Signature Algorithm: sha1WithRSAEncryption
        ce:03:cb:2f:6a:21:07:81:23:b6:47:bc:90:3b:f8:f9:74:45:
        19:86:d3:40:8b:c2:ba:e5:35:c8:c7:a3:41:8a:78:a6:ab:f5:
        a8:49:e4:44:ca:5a:e1:ce:14:f8:4c:9e:e9:c5:d8:8c:66:45:
        d8:43:6e:b1:64:79:8f:aa:e3:1b:ad:c5:69:73:c8:c5:31:d1:
        5f:f5:11:24:d6:b1:0f:0c:07:22:28:b6:92:d5:25:9f:3c:a2:
        5f:a3:97:e0:38:d5:49:83:b3:ec:dc:3b:58:47:45:d7:cf:7d:
        30:83:24:44:dc:28:78:6e:d2:e7:95:9f:94:f2:81:29:ff:bd:
        8c:fa
-----BEGIN CERTIFICATE-----
MIID4TCCA0qgAwIBAgIJANN0lvjNpXxeMA0GCSqGSIb3DQEBBQUAMHsxCzAJBgNV
BAYTAkpQMQ4wDAYDVQQIEwVUb2t5bzEPMA0GA1UEChMGS2F6emxhMRQwEgYDVQQL
EwtEZXZlbG9wbWVudDETMBEGA1UEAxMKa2F6emxhLmNvbTEgMB4GCSqGSIb3DQEJ
ARYRa29pcm9oYUBnbWFpbC5jb20wHhcNMTMwODA4MTM1OTIxWhcNMTQwODA4MTM1
OTIxWjBUMQswCQYDVQQGEwJKUDEOMAwGA1UECBMFVG9reW8xDzANBgNVBAoTBkth
enpsYTEUMBIGA1UECxMLRGV2ZWxvcG1lbnQxDjAMBgNVBAMTBXRvcmFvMIIBtzCC
ASwGByqGSM44BAEwggEfAoGBAP1/U4EddRIpUt9KnC7s5Of2EbdSPO9EAMMeP4C2
USZpRV1AIlH7WT2NWPq/xfW6MPbLm1Vs14E7gB00b/JmYLdrmVClpJ+f6AR7ECLC
T7up1/63xhv4O1fnxqimFQ8E+4P208UewwI1VBNaFpEy9nXzrith1yrv8iIDGZ3R
SAHHAhUAl2BQjxUjC8yykrmCouuEC/BYHPUCgYEA9+GghdabPd7LvKtcNrhXuXmU
r7v6OuqC+VdMCz0HgmdRWVeOutRZT+ZxBxCBgLRJFnEj6EwoFhO3zwkyjMim4TwW
eotUfI0o4KOuHiuzpnWRbqN/C/ohNWLx+2J6ASQ7zKTxvqhRkImog9/hWuWfBpKL
Zl6Ae1UlZAFMO/7PSSoDgYQAAoGAGPAh0/g0S4rzOXLdRANmNfpgwI4m4Ouu50me
aYwusDnRyd/qmrVps857WmULxt2Zx3R5amBFVTlLZ8k6kAN+6XJKu+6Pc/6mbRds
+g0VMjqZ4CFxhuya+sYRAJIpzrwV4v2xaffL5TimL/zO+AYNsW/fr7Pm0LiKg2oo
kPiIIXmjezB5MAkGA1UdEwQCMAAwLAYJYIZIAYb4QgENBB8WHU9wZW5TU0wgR2Vu
ZXJhdGVkIENlcnRpZmljYXRlMB0GA1UdDgQWBBQl8HHqzEtVKJj0IN6hhCK5J9gt
vTAfBgNVHSMEGDAWgBRcXW3pxkjK/Q/rexPFZI4JuotXOzANBgkqhkiG9w0BAQUF
AAOBgQDOA8svaiEHgSO2R7yQO/j5dEUZhtNAi8K65TXIx6NBinimq/WoSeREylrh
zhT4TJ7pxdiMZkXYQ26xZHmPquMbrcVpc8jFMdFf9REk1rEPDAciKLaS1SWfPKJf
o5fgONVJg7Ps3DtYR0XXz30wgyRE3Ch4btLnlZ+U8oEp/72M+g==
-----END CERTIFICATE-----
