Certificate:
    Data:
        Version: 3 (0x2)
        Serial Number:
            d3:74:96:f8:cd:a5:7c:5d
        Signature Algorithm: sha1WithRSAEncryption
        Issuer: C=JP, ST=Tokyo, O=Kazzla, OU=Development, CN=kazzla.com/emailAddress=koiroha@gmail.com
        Validity
            Not Before: Aug  8 13:48:18 2013 GMT
            Not After : Aug  8 13:48:18 2014 GMT
        Subject: C=JP, ST=Tokyo, O=Kazzla, OU=Development, CN=kazzla.com
        Subject Public Key Info:
            Public Key Algorithm: dsaEncryption
            DSA Public Key:
                pub: 
                    00:80:eb:73:3c:f4:58:a4:6e:ac:f2:94:88:d6:30:
                    41:22:78:dd:80:83:9f:f0:22:6b:9b:ff:57:42:cd:
                    c9:ff:76:f5:11:09:b2:68:af:40:dc:d2:1f:c1:d5:
                    96:11:f8:eb:b8:80:5b:8e:1e:ec:17:2f:e9:0f:db:
                    bf:13:e4:6b:b3:a9:fe:52:17:9c:88:53:8c:c4:69:
                    8e:ba:24:52:ba:02:a3:4d:ec:a4:cd:82:2d:e9:c7:
                    0d:22:53:94:1c:fd:d1:9c:60:f3:cd:db:01:59:65:
                    04:8d:9f:f5:2d:98:70:b1:ea:ec:96:21:83:e0:0b:
                    9c:b7:37:1c:b5:12:5f:ee:09
                P:   
                    00:fd:7f:53:81:1d:75:12:29:52:df:4a:9c:2e:ec:
                    e4:e7:f6:11:b7:52:3c:ef:44:00:c3:1e:3f:80:b6:
                    51:26:69:45:5d:40:22:51:fb:59:3d:8d:58:fa:bf:
                    c5:f5:ba:30:f6:cb:9b:55:6c:d7:81:3b:80:1d:34:
                    6f:f2:66:60:b7:6b:99:50:a5:a4:9f:9f:e8:04:7b:
                    10:22:c2:4f:bb:a9:d7:fe:b7:c6:1b:f8:3b:57:e7:
                    c6:a8:a6:15:0f:04:fb:83:f6:d3:c5:1e:c3:02:35:
                    54:13:5a:16:91:32:f6:75:f3:ae:2b:61:d7:2a:ef:
                    f2:22:03:19:9d:d1:48:01:c7
                Q:   
                    00:97:60:50:8f:15:23:0b:cc:b2:92:b9:82:a2:eb:
                    84:0b:f0:58:1c:f5
                G:   
                    00:f7:e1:a0:85:d6:9b:3d:de:cb:bc:ab:5c:36:b8:
                    57:b9:79:94:af:bb:fa:3a:ea:82:f9:57:4c:0b:3d:
                    07:82:67:51:59:57:8e:ba:d4:59:4f:e6:71:07:10:
                    81:80:b4:49:16:71:23:e8:4c:28:16:13:b7:cf:09:
                    32:8c:c8:a6:e1:3c:16:7a:8b:54:7c:8d:28:e0:a3:
                    ae:1e:2b:b3:a6:75:91:6e:a3:7f:0b:fa:21:35:62:
                    f1:fb:62:7a:01:24:3b:cc:a4:f1:be:a8:51:90:89:
                    a8:83:df:e1:5a:e5:9f:06:92:8b:66:5e:80:7b:55:
                    25:64:01:4c:3b:fe:cf:49:2a
        X509v3 extensions:
            X509v3 Basic Constraints: 
                CA:FALSE
            Netscape Comment: 
                OpenSSL Generated Certificate
            X509v3 Subject Key Identifier: 
                16:8F:98:9B:6E:D1:9F:41:FA:1E:7C:E5:40:D8:44:27:F0:F1:A9:2B
            X509v3 Authority Key Identifier: 
                keyid:5C:5D:6D:E9:C6:48:CA:FD:0F:EB:7B:13:C5:64:8E:09:BA:8B:57:3B

    Signature Algorithm: sha1WithRSAEncryption
        83:4f:fa:6b:c6:5a:60:29:d2:e2:af:a1:f5:9a:eb:1d:c1:29:
        f3:ce:8b:eb:b4:6c:3b:ab:37:30:8d:43:15:15:bb:6f:2e:fa:
        b1:64:57:32:ce:b2:5d:06:79:5b:cb:19:96:8c:2d:08:fc:86:
        88:08:f8:b6:62:6b:33:d4:cb:42:22:ed:aa:e7:67:ce:e3:72:
        43:bb:fe:5e:6d:b0:f5:97:37:ac:08:d1:a0:b9:7a:c1:47:00:
        35:73:9a:55:ec:b5:86:5d:15:b0:6b:d8:ae:f4:07:34:1b:db:
        99:53:0e:21:ac:5e:f6:c7:e7:70:91:9d:a1:50:2e:00:f8:5a:
        da:ad
-----BEGIN CERTIFICATE-----
MIID5zCCA1CgAwIBAgIJANN0lvjNpXxdMA0GCSqGSIb3DQEBBQUAMHsxCzAJBgNV
BAYTAkpQMQ4wDAYDVQQIEwVUb2t5bzEPMA0GA1UEChMGS2F6emxhMRQwEgYDVQQL
EwtEZXZlbG9wbWVudDETMBEGA1UEAxMKa2F6emxhLmNvbTEgMB4GCSqGSIb3DQEJ
ARYRa29pcm9oYUBnbWFpbC5jb20wHhcNMTMwODA4MTM0ODE4WhcNMTQwODA4MTM0
ODE4WjBZMQswCQYDVQQGEwJKUDEOMAwGA1UECBMFVG9reW8xDzANBgNVBAoTBkth
enpsYTEUMBIGA1UECxMLRGV2ZWxvcG1lbnQxEzARBgNVBAMTCmthenpsYS5jb20w
ggG4MIIBLAYHKoZIzjgEATCCAR8CgYEA/X9TgR11EilS30qcLuzk5/YRt1I870QA
wx4/gLZRJmlFXUAiUftZPY1Y+r/F9bow9subVWzXgTuAHTRv8mZgt2uZUKWkn5/o
BHsQIsJPu6nX/rfGG/g7V+fGqKYVDwT7g/bTxR7DAjVUE1oWkTL2dfOuK2HXKu/y
IgMZndFIAccCFQCXYFCPFSMLzLKSuYKi64QL8Fgc9QKBgQD34aCF1ps93su8q1w2
uFe5eZSvu/o66oL5V0wLPQeCZ1FZV4661FlP5nEHEIGAtEkWcSPoTCgWE7fPCTKM
yKbhPBZ6i1R8jSjgo64eK7OmdZFuo38L+iE1YvH7YnoBJDvMpPG+qFGQiaiD3+Fa
5Z8GkotmXoB7VSVkAUw7/s9JKgOBhQACgYEAgOtzPPRYpG6s8pSI1jBBInjdgIOf
8CJrm/9XQs3J/3b1EQmyaK9A3NIfwdWWEfjruIBbjh7sFy/pD9u/E+Rrs6n+Uhec
iFOMxGmOuiRSugKjTeykzYIt6ccNIlOUHP3RnGDzzdsBWWUEjZ/1LZhwsersliGD
4AuctzcctRJf7gmjezB5MAkGA1UdEwQCMAAwLAYJYIZIAYb4QgENBB8WHU9wZW5T
U0wgR2VuZXJhdGVkIENlcnRpZmljYXRlMB0GA1UdDgQWBBQWj5ibbtGfQfoefOVA
2EQn8PGpKzAfBgNVHSMEGDAWgBRcXW3pxkjK/Q/rexPFZI4JuotXOzANBgkqhkiG
9w0BAQUFAAOBgQCDT/prxlpgKdLir6H1musdwSnzzovrtGw7qzcwjUMVFbtvLvqx
ZFcyzrJdBnlbyxmWjC0I/IaICPi2Ymsz1MtCIu2q52fO43JDu/5ebbD1lzesCNGg
uXrBRwA1c5pV7LWGXRWwa9iu9Ac0G9uZUw4hrF72x+dwkZ2hUC4A+FrarQ==
-----END CERTIFICATE-----
